; Function Attrs: mustprogress uwtable
define internal noundef ptr @_ZL12parseIntegerP10ParseStatePcjPK7UStringP10UErrorCode(ptr noundef %state, ptr noundef %tag, i32 noundef %startline, ptr noundef %comment, ptr noundef %status) #1 {
entry:
  %stopstring = alloca ptr, align 8
  %stringLength = alloca i32, align 4
  %call = call fastcc noundef ptr @_ZL18getInvariantStringP10ParseStatePjP7UStringRiP10UErrorCode(ptr noundef %state, ptr noundef null, ptr noundef nonnull align 4 dereferenceable(4) %stringLength, ptr noundef %status)
  %cmp = icmp eq ptr %call, null
  br i1 %cmp, label %return, label %lor.lhs.false

lor.lhs.false:                                    ; preds = %entry
  %0 = load i32, ptr %status, align 4
  %cmp.i = icmp slt i32 %0, 1
  br i1 %cmp.i, label %if.end, label %return

if.end:                                           ; preds = %lor.lhs.false
  %lookaheadPosition.i.i = getelementptr inbounds i8, ptr %state, i64 192
  %1 = load i32, ptr %lookaheadPosition.i.i, align 8
  %idxprom.i.i = zext i32 %1 to i64
  %arrayidx.i.i = getelementptr inbounds [4 x %struct.Lookahead], ptr %state, i64 0, i64 %idxprom.i.i
  %2 = load i32, ptr %arrayidx.i.i, align 8
  %line.i.i = getelementptr inbounds [4 x %struct.Lookahead], ptr %state, i64 0, i64 %idxprom.i.i, i32 3
  %3 = load i32, ptr %line.i.i, align 8
  %add.i.i = add i32 %1, 3
  %rem.i.i = and i32 %add.i.i, 3
  %add22.i.i = add i32 %1, 1
  %rem23.i.i = and i32 %add22.i.i, 3
  store i32 %rem23.i.i, ptr %lookaheadPosition.i.i, align 8
  %idxprom26.i.i = zext nneg i32 %rem.i.i to i64
  %arrayidx27.i.i = getelementptr inbounds [4 x %struct.Lookahead], ptr %state, i64 0, i64 %idxprom26.i.i
  %comment28.i.i = getelementptr inbounds i8, ptr %arrayidx27.i.i, i64 24
  tail call void @ustr_setlen(ptr noundef nonnull %comment28.i.i, i32 noundef 0, ptr noundef nonnull %status)
  %value32.i.i = getelementptr inbounds i8, ptr %arrayidx27.i.i, i64 8
  tail call void @ustr_setlen(ptr noundef nonnull %value32.i.i, i32 noundef 0, ptr noundef nonnull %status)
  %buffer.i.i = getelementptr inbounds i8, ptr %state, i64 200
  %4 = load ptr, ptr %buffer.i.i, align 8
  %line40.i.i = getelementptr inbounds i8, ptr %arrayidx27.i.i, i64 40
  %call.i.i = tail call i32 @getNextToken(ptr noundef %4, ptr noundef nonnull %value32.i.i, ptr noundef nonnull %line40.i.i, ptr noundef nonnull %comment28.i.i, ptr noundef nonnull %status)
  store i32 %call.i.i, ptr %arrayidx27.i.i, align 8
  %5 = load i32, ptr %status, align 4
  %cmp.i.i = icmp slt i32 %5, 1
  br i1 %cmp.i.i, label %if.end3.i, label %return.sink.split

if.end3.i:                                        ; preds = %if.end
  %cmp4.not.i = icmp eq i32 %2, 2
  br i1 %cmp4.not.i, label %_ZL6expectP10ParseState10ETokenTypePP7UStringS3_PjP10UErrorCode.exit.thread, label %_ZL6expectP10ParseState10ETokenTypePP7UStringS3_PjP10UErrorCode.exit

_ZL6expectP10ParseState10ETokenTypePP7UStringS3_PjP10UErrorCode.exit.thread: ; preds = %if.end3.i
  store i32 0, ptr %status, align 4
  br label %if.end5

_ZL6expectP10ParseState10ETokenTypePP7UStringS3_PjP10UErrorCode.exit: ; preds = %if.end3.i
  store i32 3, ptr %status, align 4
  %6 = load ptr, ptr getelementptr inbounds ([7 x ptr], ptr @tokenNames, i64 0, i64 2), align 16
  %idxprom6.i = zext i32 %2 to i64
  %arrayidx7.i = getelementptr inbounds [7 x ptr], ptr @tokenNames, i64 0, i64 %idxprom6.i
  %7 = load ptr, ptr %arrayidx7.i, align 8
  tail call void (i32, ptr, ...) @error(i32 noundef %3, ptr noundef nonnull @.str.10, ptr noundef %6, ptr noundef %7)
  %.pre = load i32, ptr %status, align 4
  %8 = icmp slt i32 %.pre, 1
  br i1 %8, label %if.end5, label %return.sink.split

if.end5:                                          ; preds = %_ZL6expectP10ParseState10ETokenTypePP7UStringS3_PjP10UErrorCode.exit.thread, %_ZL6expectP10ParseState10ETokenTypePP7UStringS3_PjP10UErrorCode.exit
  %call6 = tail call signext i8 @isVerbose()
  %tobool7.not = icmp eq i8 %call6, 0
  br i1 %tobool7.not, label %if.end11, label %if.then8

if.then8:                                         ; preds = %if.end5
  %cmp9 = icmp eq ptr %tag, null
  %cond = select i1 %cmp9, ptr @.str.29, ptr %tag
  %call10 = tail call i32 (ptr, ...) @printf(ptr noundef nonnull dereferenceable(1) @.str.104, ptr noundef nonnull %cond, i32 noundef %startline)
  br label %if.end11

if.end11:                                         ; preds = %if.then8, %if.end5
  %9 = load i32, ptr %stringLength, align 4
  %cmp12 = icmp eq i32 %9, 0
  br i1 %cmp12, label %if.then13, label %if.end14

if.then13:                                        ; preds = %if.end11
  tail call void (i32, ptr, ...) @warning(i32 noundef %startline, ptr noundef nonnull @.str.105)
  br label %if.end14

if.end14:                                         ; preds = %if.then13, %if.end11
  %call15 = call i64 @strtoul(ptr noundef nonnull %call, ptr noundef nonnull %stopstring, i32 noundef 0) #19
  %10 = load ptr, ptr %stopstring, align 8
  %sub.ptr.lhs.cast = ptrtoint ptr %10 to i64
  %sub.ptr.rhs.cast = ptrtoint ptr %call to i64
  %sub.ptr.sub = sub i64 %sub.ptr.lhs.cast, %sub.ptr.rhs.cast
  %conv16 = trunc i64 %sub.ptr.sub to i32
  %cmp17 = icmp eq i32 %9, %conv16
  br i1 %cmp17, label %if.then18, label %if.else

if.then18:                                        ; preds = %if.end14
  %conv = trunc i64 %call15 to i32
  %bundle = getelementptr inbounds i8, ptr %state, i64 208
  %11 = load ptr, ptr %bundle, align 8
  %call19 = tail call ptr @int_open(ptr noundef %11, ptr noundef %tag, i32 noundef %conv, ptr noundef %comment, ptr noundef nonnull %status)
  br label %return.sink.split

if.else:                                          ; preds = %if.end14
  store i32 10, ptr %status, align 4
  br label %return.sink.split

return.sink.split:                                ; preds = %if.then18, %if.else, %_ZL6expectP10ParseState10ETokenTypePP7UStringS3_PjP10UErrorCode.exit, %if.end
  %retval.0.ph = phi ptr [ null, %if.end ], [ null, %_ZL6expectP10ParseState10ETokenTypePP7UStringS3_PjP10UErrorCode.exit ], [ %call19, %if.then18 ], [ null, %if.else ]
  tail call void @uprv_free_75(ptr noundef nonnull %call)
  br label %return

return:                                           ; preds = %return.sink.split, %entry, %lor.lhs.false
  %retval.0 = phi ptr [ null, %lor.lhs.false ], [ null, %entry ], [ %retval.0.ph, %return.sink.split ]
  ret ptr %retval.0
}